target datalayout = "e-m:e-p270:32:32-p271:32:32-p272:64:64-i64:64-i128:128-f80:128-n8:16:32:64-S128"
target triple = "x86_64-pc-linux-gnu"

%"struct.std::array" = type { [15 x i32] }
%"struct.open_spiel::dou_dizhu::SingleRankHandParams" = type { i32, i32 }

; Function Attrs: mustprogress nounwind uwtable
define linkonce_odr noundef nonnull align 4 dereferenceable(4) ptr @_ZNSt14__array_traitsIiLm15EE6_S_refERA15_Kim(ptr noundef nonnull align 4 dereferenceable(60) %0, i64 noundef %1) #4 comdat align 2 {
  %3 = alloca ptr, align 8
  %4 = alloca i64, align 8
  store ptr %0, ptr %3, align 8
  store i64 %1, ptr %4, align 8
  %5 = load ptr, ptr %3, align 8
  %6 = load i64, ptr %4, align 8
  %7 = getelementptr inbounds [15 x i32], ptr %5, i64 0, i64 %6
  ret ptr %7
}

; Function Attrs: mustprogress nounwind uwtable
define linkonce_odr noundef nonnull align 4 dereferenceable(4) ptr @_ZNSt5arrayIiLm15EEixEm(ptr noundef nonnull align 4 dereferenceable(60) %0, i64 noundef %1) #4 comdat align 2 {
  %3 = alloca ptr, align 8
  %4 = alloca i64, align 8
  store ptr %0, ptr %3, align 8
  store i64 %1, ptr %4, align 8
  %5 = load ptr, ptr %3, align 8
  %6 = getelementptr inbounds nuw %"struct.std::array", ptr %5, i32 0, i32 0
  %7 = load i64, ptr %4, align 8
  %8 = call noundef nonnull align 4 dereferenceable(4) ptr @_ZNSt14__array_traitsIiLm15EE6_S_refERA15_Kim(ptr noundef nonnull align 4 dereferenceable(60) %6, i64 noundef %7) #3
  ret ptr %8
}

; Function Attrs: mustprogress uwtable
define void @_ZN10open_spiel9dou_dizhu14SingleRankHandEi(ptr dead_on_unwind noalias writable sret(%"struct.std::array") align 4 %0, i32 noundef %1) #5 {
  %3 = alloca i32, align 4
  %4 = alloca %"struct.open_spiel::dou_dizhu::SingleRankHandParams", align 4
  store i32 %1, ptr %3, align 4
  call void @llvm.memset.p0.i64(ptr align 4 %0, i8 0, i64 60, i1 false)
  %5 = load i32, ptr %3, align 4
  %6 = call i64 @_ZN10open_spiel9dou_dizhu23GetSingleRankHandParamsEi(i32 noundef %5)
  store i64 %6, ptr %4, align 4
  %7 = getelementptr inbounds nuw %"struct.open_spiel::dou_dizhu::SingleRankHandParams", ptr %4, i32 0, i32 1
  %8 = load i32, ptr %7, align 4
  %9 = getelementptr inbounds nuw %"struct.open_spiel::dou_dizhu::SingleRankHandParams", ptr %4, i32 0, i32 0
  %10 = load i32, ptr %9, align 4
  %11 = sext i32 %10 to i64
  %12 = call noundef nonnull align 4 dereferenceable(4) ptr @_ZNSt5arrayIiLm15EEixEm(ptr noundef nonnull align 4 dereferenceable(60) %0, i64 noundef %11) #3
  store i32 %8, ptr %12, align 4
  ret void
}