; Function Attrs: mustprogress uwtable
define void @_ZN10open_spiel9dou_dizhu14SingleRankHandEi(ptr dead_on_unwind noalias nocapture writable writeonly sret(%"struct.std::array") align 4 %0, i32 noundef %1) local_unnamed_addr #4 {
  tail call void @llvm.memset.p0.i64(ptr noundef nonnull align 4 dereferenceable(60) %0, i8 0, i64 60, i1 false)
  %3 = tail call i64 @_ZN10open_spiel9dou_dizhu23GetSingleRankHandParamsEi(i32 noundef %1)
  %.sroa.2.0.extract.shift = lshr i64 %3, 32
  %.sroa.2.0.extract.trunc = trunc nuw nsw i64 %.sroa.2.0.extract.shift to i32
  %sext = shl i64 %3, 32
  %4 = ashr exact i64 %sext, 32
  %5 = getelementptr inbounds [15 x i32], ptr %0, i64 0, i64 %4
  store i32 %.sroa.2.0.extract.trunc, ptr %5, align 4
  ret void
}